target datalayout = "e-m:e-p270:32:32-p271:32:32-p272:64:64-i64:64-i128:128-f80:128-n8:16:32:64-S128"
target triple = "x86_64-pc-linux-gnu"

%class.MutexLocker = type { %class.MutexLockerImpl }
%class.MutexLockerImpl = type { ptr }
%class.CompileLog = type { %class.xmlStream, ptr, i64, i64, %class.stringStream, [100 x i8], ptr, i32, i32, ptr }
%class.xmlStream = type { %class.outputStream, ptr, i64, i32, ptr, %class.xmlTextStream }
%class.outputStream = type { ptr, i32, i8, i32, i64, %class.TimeStamp, ptr, i64 }
%class.TimeStamp = type { i64 }
%class.xmlTextStream = type { %class.outputStream, ptr }
%class.stringStream = type <{ %class.outputStream, ptr, i64, i64, i8, [48 x i8], [7 x i8] }>
%class.fileStream = type <{ %class.outputStream, ptr, i8, [7 x i8] }>

@_ZN10CompileLog6_firstE = hidden global ptr null, align 8
@CompileTaskAlloc_lock = external global ptr, align 8
@_ZTV9xmlStream = external unnamed_addr constant { [9 x ptr] }, align 8
@_ZTV13xmlTextStream = external unnamed_addr constant { [7 x ptr] }, align 8
@_ZTV10fileStream = external unnamed_addr constant { [7 x ptr] }, align 8

; Function Attrs: mustprogress nounwind uwtable
define linkonce_odr hidden void @_ZN15MutexLockerImplD2Ev(ptr noundef nonnull align 8 dereferenceable(8) %0) unnamed_addr #1 comdat align 2 {
  %2 = alloca ptr, align 8
  store ptr %0, ptr %2, align 8
  %3 = load ptr, ptr %2, align 8
  %4 = getelementptr inbounds %class.MutexLockerImpl, ptr %3, i32 0, i32 0
  %5 = load ptr, ptr %4, align 8
  %6 = icmp ne ptr %5, null
  br i1 %6, label %7, label %10

7:                                                ; preds = %1
  %8 = getelementptr inbounds %class.MutexLockerImpl, ptr %3, i32 0, i32 0
  %9 = load ptr, ptr %8, align 8
  call void @_ZN5Mutex6unlockEv(ptr noundef nonnull align 8 dereferenceable(104) %9)
  br label %10

10:                                               ; preds = %7, %1
  ret void
}

; Function Attrs: mustprogress nounwind uwtable
define linkonce_odr hidden void @_ZN15MutexLockerImplC2EP5MutexNS0_18SafepointCheckFlagE(ptr noundef nonnull align 8 dereferenceable(8) %0, ptr noundef %1, i32 noundef %2) unnamed_addr #1 comdat align 2 {
  %4 = alloca ptr, align 8
  %5 = alloca ptr, align 8
  %6 = alloca i32, align 4
  %7 = alloca i8, align 1
  store ptr %0, ptr %4, align 8
  store ptr %1, ptr %5, align 8
  store i32 %2, ptr %6, align 4
  %8 = load ptr, ptr %4, align 8
  %9 = getelementptr inbounds %class.MutexLockerImpl, ptr %8, i32 0, i32 0
  %10 = load ptr, ptr %5, align 8
  store ptr %10, ptr %9, align 8
  %11 = load i32, ptr %6, align 4
  %12 = icmp eq i32 %11, 1
  %13 = zext i1 %12 to i8
  store i8 %13, ptr %7, align 1
  %14 = getelementptr inbounds %class.MutexLockerImpl, ptr %8, i32 0, i32 0
  %15 = load ptr, ptr %14, align 8
  %16 = icmp ne ptr %15, null
  br i1 %16, label %17, label %27

17:                                               ; preds = %3
  %18 = load i8, ptr %7, align 1
  %19 = trunc i8 %18 to i1
  br i1 %19, label %20, label %23

20:                                               ; preds = %17
  %21 = getelementptr inbounds %class.MutexLockerImpl, ptr %8, i32 0, i32 0
  %22 = load ptr, ptr %21, align 8
  call void @_ZN5Mutex28lock_without_safepoint_checkEv(ptr noundef nonnull align 8 dereferenceable(104) %22)
  br label %26

23:                                               ; preds = %17
  %24 = getelementptr inbounds %class.MutexLockerImpl, ptr %8, i32 0, i32 0
  %25 = load ptr, ptr %24, align 8
  call void @_ZN5Mutex4lockEv(ptr noundef nonnull align 8 dereferenceable(104) %25)
  br label %26

26:                                               ; preds = %23, %20
  br label %27

27:                                               ; preds = %26, %3
  ret void
}

; Function Attrs: mustprogress nounwind uwtable
define linkonce_odr hidden void @_ZN13xmlTextStreamC2Ev(ptr noundef nonnull align 8 dereferenceable(64) %0) unnamed_addr #1 comdat align 2 {
  %2 = alloca ptr, align 8
  store ptr %0, ptr %2, align 8
  %3 = load ptr, ptr %2, align 8
  call void @_ZN12outputStreamC2Eb(ptr noundef nonnull align 8 dereferenceable(56) %3, i1 noundef zeroext false)
  store ptr getelementptr inbounds inrange(-16, 40) ({ [7 x ptr] }, ptr @_ZTV13xmlTextStream, i32 0, i32 0, i32 2), ptr %3, align 8
  %4 = getelementptr inbounds %class.xmlTextStream, ptr %3, i32 0, i32 1
  store ptr null, ptr %4, align 8
  ret void
}

; Function Attrs: mustprogress nounwind uwtable
define linkonce_odr hidden void @_ZN11MutexLockerD2Ev(ptr noundef nonnull align 8 dereferenceable(8) %0) unnamed_addr #1 comdat align 2 {
  %2 = alloca ptr, align 8
  store ptr %0, ptr %2, align 8
  %3 = load ptr, ptr %2, align 8
  call void @_ZN15MutexLockerImplD2Ev(ptr noundef nonnull align 8 dereferenceable(8) %3) #8
  ret void
}

; Function Attrs: mustprogress nounwind uwtable
define linkonce_odr hidden void @_ZN11MutexLockerC2EP5MutexNS0_18SafepointCheckFlagE(ptr noundef nonnull align 8 dereferenceable(8) %0, ptr noundef %1, i32 noundef %2) unnamed_addr #1 comdat align 2 {
  %4 = alloca ptr, align 8
  %5 = alloca ptr, align 8
  %6 = alloca i32, align 4
  store ptr %0, ptr %4, align 8
  store ptr %1, ptr %5, align 8
  store i32 %2, ptr %6, align 4
  %7 = load ptr, ptr %4, align 8
  %8 = load ptr, ptr %5, align 8
  %9 = load i32, ptr %6, align 4
  call void @_ZN15MutexLockerImplC2EP5MutexNS0_18SafepointCheckFlagE(ptr noundef nonnull align 8 dereferenceable(8) %7, ptr noundef %8, i32 noundef %9)
  ret void
}

; Function Attrs: mustprogress nounwind uwtable
define linkonce_odr hidden void @_ZN10fileStreamC2EP8_IO_FILEb(ptr noundef nonnull align 8 dereferenceable(65) %0, ptr noundef %1, i1 noundef zeroext %2) unnamed_addr #1 comdat align 2 {
  %4 = alloca ptr, align 8
  %5 = alloca ptr, align 8
  %6 = alloca i8, align 1
  store ptr %0, ptr %4, align 8
  store ptr %1, ptr %5, align 8
  %7 = zext i1 %2 to i8
  store i8 %7, ptr %6, align 1
  %8 = load ptr, ptr %4, align 8
  call void @_ZN12outputStreamC2Eb(ptr noundef nonnull align 8 dereferenceable(56) %8, i1 noundef zeroext false)
  store ptr getelementptr inbounds inrange(-16, 40) ({ [7 x ptr] }, ptr @_ZTV10fileStream, i32 0, i32 0, i32 2), ptr %8, align 8
  %9 = load ptr, ptr %5, align 8
  %10 = getelementptr inbounds %class.fileStream, ptr %8, i32 0, i32 1
  store ptr %9, ptr %10, align 8
  %11 = load i8, ptr %6, align 1
  %12 = trunc i8 %11 to i1
  %13 = getelementptr inbounds %class.fileStream, ptr %8, i32 0, i32 2
  %14 = zext i1 %12 to i8
  store i8 %14, ptr %13, align 8
  ret void
}

; Function Attrs: mustprogress nounwind uwtable
define linkonce_odr hidden void @_ZN9xmlStreamC2Ev(ptr noundef nonnull align 8 dereferenceable(152) %0) unnamed_addr #1 comdat align 2 {
  %2 = alloca ptr, align 8
  store ptr %0, ptr %2, align 8
  %3 = load ptr, ptr %2, align 8
  call void @_ZN12outputStreamC2Eb(ptr noundef nonnull align 8 dereferenceable(56) %3, i1 noundef zeroext false)
  store ptr getelementptr inbounds inrange(-16, 56) ({ [9 x ptr] }, ptr @_ZTV9xmlStream, i32 0, i32 0, i32 2), ptr %3, align 8
  %4 = getelementptr inbounds %class.xmlStream, ptr %3, i32 0, i32 5
  call void @_ZN13xmlTextStreamC2Ev(ptr noundef nonnull align 8 dereferenceable(64) %4)
  ret void
}

; Function Attrs: mustprogress nounwind uwtable
define hidden void @_ZN10CompileLogC2EPKcP8_IO_FILEl(ptr noundef nonnull align 8 dereferenceable(440) %0, ptr noundef %1, ptr noundef %2, i64 noundef %3) unnamed_addr #1 align 2 {
  %5 = alloca i64, align 8
  %6 = alloca i8, align 1
  %7 = alloca ptr, align 8
  %8 = alloca ptr, align 8
  %9 = alloca ptr, align 8
  %10 = alloca i64, align 8
  %11 = alloca %class.MutexLocker, align 8
  store ptr %0, ptr %7, align 8
  store ptr %1, ptr %8, align 8
  store ptr %2, ptr %9, align 8
  store i64 %3, ptr %10, align 8
  %12 = load ptr, ptr %7, align 8
  call void @_ZN9xmlStreamC2Ev(ptr noundef nonnull align 8 dereferenceable(152) %12)
  store ptr getelementptr inbounds inrange(-16, 56) ({ [9 x ptr] }, ptr @_ZTV10CompileLog, i32 0, i32 0, i32 2), ptr %12, align 8
  %13 = getelementptr inbounds %class.CompileLog, ptr %12, i32 0, i32 4
  %14 = getelementptr inbounds %class.CompileLog, ptr %12, i32 0, i32 5
  %15 = getelementptr inbounds [100 x i8], ptr %14, i64 0, i64 0
  call void @_ZN12stringStreamC1EPcm(ptr noundef nonnull align 8 dereferenceable(129) %13, ptr noundef %15, i64 noundef 100)
  store i64 72, ptr %5, align 8
  store i8 7, ptr %6, align 1
  %16 = load i64, ptr %5, align 8
  %17 = load i8, ptr %6, align 1
  %18 = call noundef ptr @_Z12AllocateHeapm8MEMFLAGSN17AllocFailStrategy13AllocFailEnumE(i64 noundef %16, i8 noundef zeroext %17, i32 noundef 0) #8
  %19 = load ptr, ptr %9, align 8
  call void @_ZN10fileStreamC2EP8_IO_FILEb(ptr noundef nonnull align 8 dereferenceable(65) %18, ptr noundef %19, i1 noundef zeroext true)
  call void @_ZN9xmlStream10initializeEP12outputStream(ptr noundef nonnull align 8 dereferenceable(152) %12, ptr noundef %18)
  %20 = getelementptr inbounds %class.CompileLog, ptr %12, i32 0, i32 2
  store i64 0, ptr %20, align 8
  %21 = load i64, ptr %10, align 8
  %22 = getelementptr inbounds %class.CompileLog, ptr %12, i32 0, i32 3
  store i64 %21, ptr %22, align 8
  %23 = getelementptr inbounds %class.CompileLog, ptr %12, i32 0, i32 7
  store i32 0, ptr %23, align 8
  %24 = getelementptr inbounds %class.CompileLog, ptr %12, i32 0, i32 8
  store i32 400, ptr %24, align 4
  %25 = getelementptr inbounds %class.CompileLog, ptr %12, i32 0, i32 8
  %26 = load i32, ptr %25, align 4
  %27 = sext i32 %26 to i64
  %28 = mul i64 %27, 1
  %29 = call noundef ptr @_Z12AllocateHeapm8MEMFLAGSN17AllocFailStrategy13AllocFailEnumE(i64 noundef %28, i8 noundef zeroext 7, i32 noundef 0)
  %30 = getelementptr inbounds %class.CompileLog, ptr %12, i32 0, i32 6
  store ptr %29, ptr %30, align 8
  %31 = load ptr, ptr %8, align 8
  %32 = call i64 @strlen(ptr noundef %31) #9
  %33 = add i64 %32, 1
  %34 = mul i64 %33, 1
  %35 = call noundef ptr @_Z12AllocateHeapm8MEMFLAGSN17AllocFailStrategy13AllocFailEnumE(i64 noundef %34, i8 noundef zeroext 7, i32 noundef 0)
  %36 = getelementptr inbounds %class.CompileLog, ptr %12, i32 0, i32 1
  store ptr %35, ptr %36, align 8
  %37 = getelementptr inbounds %class.CompileLog, ptr %12, i32 0, i32 1
  %38 = load ptr, ptr %37, align 8
  %39 = load ptr, ptr %8, align 8
  %40 = call ptr @strcpy(ptr noundef %38, ptr noundef %39) #8
  %41 = load ptr, ptr @CompileTaskAlloc_lock, align 8
  call void @_ZN11MutexLockerC2EP5MutexNS0_18SafepointCheckFlagE(ptr noundef nonnull align 8 dereferenceable(8) %11, ptr noundef %41, i32 noundef 0)
  %42 = load ptr, ptr @_ZN10CompileLog6_firstE, align 8
  %43 = getelementptr inbounds %class.CompileLog, ptr %12, i32 0, i32 9
  store ptr %42, ptr %43, align 8
  store ptr %12, ptr @_ZN10CompileLog6_firstE, align 8
  call void @_ZN11MutexLockerD2Ev(ptr noundef nonnull align 8 dereferenceable(8) %11) #8
  ret void
}