; Function Attrs: mustprogress nounwind uwtable
define hidden void @_ZN10CompileLogC2EPKcP8_IO_FILEl(ptr noundef nonnull align 8 dereferenceable(440) %0, ptr nocapture noundef readonly %1, ptr noundef %2, i64 noundef %3) unnamed_addr #0 align 2 {
  tail call void @_ZN12outputStreamC2Eb(ptr noundef nonnull align 8 dereferenceable(56) %0, i1 noundef zeroext false) #11
  store ptr getelementptr inbounds inrange(-16, 56) (i8, ptr @_ZTV9xmlStream, i64 16), ptr %0, align 8
  %5 = getelementptr inbounds i8, ptr %0, i64 88
  tail call void @_ZN12outputStreamC2Eb(ptr noundef nonnull align 8 dereferenceable(56) %5, i1 noundef zeroext false) #11
  store ptr getelementptr inbounds inrange(-16, 40) (i8, ptr @_ZTV13xmlTextStream, i64 16), ptr %5, align 8
  %6 = getelementptr inbounds i8, ptr %0, i64 144
  store ptr null, ptr %6, align 8
  store ptr getelementptr inbounds inrange(-16, 56) (i8, ptr @_ZTV10CompileLog, i64 16), ptr %0, align 8
  %7 = getelementptr inbounds i8, ptr %0, i64 176
  %8 = getelementptr inbounds i8, ptr %0, i64 312
  tail call void @_ZN12stringStreamC1EPcm(ptr noundef nonnull align 8 dereferenceable(129) %7, ptr noundef nonnull %8, i64 noundef 100) #11
  %9 = tail call noundef ptr @_Z12AllocateHeapm8MEMFLAGSN17AllocFailStrategy13AllocFailEnumE(i64 noundef 72, i8 noundef zeroext 7, i32 noundef 0) #11
  tail call void @_ZN12outputStreamC2Eb(ptr noundef nonnull align 8 dereferenceable(56) %9, i1 noundef zeroext false) #11
  store ptr getelementptr inbounds inrange(-16, 40) (i8, ptr @_ZTV10fileStream, i64 16), ptr %9, align 8
  %10 = getelementptr inbounds i8, ptr %9, i64 56
  store ptr %2, ptr %10, align 8
  %11 = getelementptr inbounds i8, ptr %9, i64 64
  store i8 1, ptr %11, align 8
  tail call void @_ZN9xmlStream10initializeEP12outputStream(ptr noundef nonnull align 8 dereferenceable(152) %0, ptr noundef nonnull %9) #11
  %12 = getelementptr inbounds i8, ptr %0, i64 160
  store i64 0, ptr %12, align 8
  %13 = getelementptr inbounds i8, ptr %0, i64 168
  store i64 %3, ptr %13, align 8
  %14 = getelementptr inbounds i8, ptr %0, i64 424
  store i32 0, ptr %14, align 8
  %15 = getelementptr inbounds i8, ptr %0, i64 428
  store i32 400, ptr %15, align 4
  %16 = tail call noundef ptr @_Z12AllocateHeapm8MEMFLAGSN17AllocFailStrategy13AllocFailEnumE(i64 noundef 400, i8 noundef zeroext 7, i32 noundef 0) #11
  %17 = getelementptr inbounds i8, ptr %0, i64 416
  store ptr %16, ptr %17, align 8
  %18 = tail call i64 @strlen(ptr noundef nonnull dereferenceable(1) %1) #12
  %19 = add i64 %18, 1
  %20 = tail call noundef ptr @_Z12AllocateHeapm8MEMFLAGSN17AllocFailStrategy13AllocFailEnumE(i64 noundef %19, i8 noundef zeroext 7, i32 noundef 0) #11
  %21 = getelementptr inbounds i8, ptr %0, i64 152
  store ptr %20, ptr %21, align 8
  %22 = tail call ptr @strcpy(ptr noundef nonnull dereferenceable(1) %20, ptr noundef nonnull dereferenceable(1) %1) #11
  %23 = load ptr, ptr @CompileTaskAlloc_lock, align 8
  %.not.i.i = icmp eq ptr %23, null
  br i1 %.not.i.i, label %_ZN11MutexLockerC2EP5MutexNS0_18SafepointCheckFlagE.exit.thread, label %26

_ZN11MutexLockerC2EP5MutexNS0_18SafepointCheckFlagE.exit.thread: ; preds = %4
  %24 = load ptr, ptr @_ZN10CompileLog6_firstE, align 8
  %25 = getelementptr inbounds i8, ptr %0, i64 432
  store ptr %24, ptr %25, align 8
  store ptr %0, ptr @_ZN10CompileLog6_firstE, align 8
  br label %_ZN11MutexLockerD2Ev.exit

26:                                               ; preds = %4
  tail call void @_ZN5Mutex4lockEv(ptr noundef nonnull align 8 dereferenceable(104) %23) #11
  %27 = load ptr, ptr @_ZN10CompileLog6_firstE, align 8
  %28 = getelementptr inbounds i8, ptr %0, i64 432
  store ptr %27, ptr %28, align 8
  store ptr %0, ptr @_ZN10CompileLog6_firstE, align 8
  tail call void @_ZN5Mutex6unlockEv(ptr noundef nonnull align 8 dereferenceable(104) %23) #11
  br label %_ZN11MutexLockerD2Ev.exit

_ZN11MutexLockerD2Ev.exit:                        ; preds = %_ZN11MutexLockerC2EP5MutexNS0_18SafepointCheckFlagE.exit.thread, %26
  ret void
}